target datalayout = "e-m:e-p270:32:32-p271:32:32-p272:64:64-i64:64-i128:128-f80:128-n8:16:32:64-S128"
target triple = "x86_64-pc-linux-gnu"

; Function Attrs: nounwind uwtable
define internal i32 @signature_cmp(ptr noundef %0, ptr noundef %1) #0 {
  %3 = alloca ptr, align 8
  %4 = alloca ptr, align 8
  store ptr %0, ptr %3, align 8, !tbaa !145
  store ptr %1, ptr %4, align 8, !tbaa !145
  %5 = load ptr, ptr %3, align 8, !tbaa !145
  %6 = load ptr, ptr %5, align 8, !tbaa !69
  %7 = call ptr @EVP_SIGNATURE_get0_provider(ptr noundef %6)
  %8 = call ptr @OSSL_PROVIDER_get0_name(ptr noundef %7)
  %9 = load ptr, ptr %4, align 8, !tbaa !145
  %10 = load ptr, ptr %9, align 8, !tbaa !69
  %11 = call ptr @EVP_SIGNATURE_get0_provider(ptr noundef %10)
  %12 = call ptr @OSSL_PROVIDER_get0_name(ptr noundef %11)
  %13 = call i32 @strcmp(ptr noundef %8, ptr noundef %12) #8
  ret i32 %13
}